target datalayout = "e-m:e-p270:32:32-p271:32:32-p272:64:64-i64:64-i128:128-f80:128-n8:16:32:64-S128"
target triple = "x86_64-pc-linux-gnu"

%"class.net::CachedNetworkParameters" = type { %"class.google::protobuf::MessageLite", %"struct.google::protobuf::internal::ArenaStringPtr", ptr, [1 x i32], i32, %"struct.google::protobuf::internal::ArenaStringPtr", i32, i32, i64, i32, i32, i64 }
%"class.google::protobuf::MessageLite" = type { ptr }
%"struct.google::protobuf::internal::ArenaStringPtr" = type { ptr }

@_ZN6google8protobuf8internal13empty_string_B5cxx11E = external global ptr, align 8

; Function Attrs: inlinehint mustprogress nounwind uwtable
define linkonce_odr void @_ZN6google8protobuf8internal14ArenaStringPtr16UnsafeSetDefaultEPKNSt7__cxx1112basic_stringIcSt11char_traitsIcESaIcEEE(ptr noundef nonnull align 8 dereferenceable(8) %0, ptr noundef %1) #6 comdat align 2 {
  %3 = alloca ptr, align 8
  %4 = alloca ptr, align 8
  store ptr %0, ptr %3, align 8, !tbaa !36
  store ptr %1, ptr %4, align 8, !tbaa !35
  %5 = load ptr, ptr %3, align 8
  %6 = load ptr, ptr %4, align 8, !tbaa !35
  %7 = getelementptr inbounds nuw %"struct.google::protobuf::internal::ArenaStringPtr", ptr %5, i32 0, i32 0
  store ptr %6, ptr %7, align 8, !tbaa !38
  ret void
}

; Function Attrs: inlinehint mustprogress nounwind uwtable
define linkonce_odr noundef nonnull align 8 dereferenceable(32) ptr @_ZN6google8protobuf8internal27GetEmptyStringAlreadyInitedB5cxx11Ev() #6 comdat {
  %1 = load ptr, ptr @_ZN6google8protobuf8internal13empty_string_B5cxx11E, align 8, !tbaa !35
  ret ptr %1
}

; Function Attrs: mustprogress uwtable
define void @_ZN3net23CachedNetworkParameters10SharedCtorEv(ptr noundef nonnull align 8 dereferenceable(72) %0) #1 align 2 {
  %2 = alloca ptr, align 8
  store ptr %0, ptr %2, align 8, !tbaa !3
  %3 = load ptr, ptr %2, align 8
  %4 = call noundef nonnull align 8 dereferenceable(32) ptr @_ZN6google8protobuf8internal14GetEmptyStringB5cxx11Ev()
  %5 = getelementptr inbounds nuw %"class.net::CachedNetworkParameters", ptr %3, i32 0, i32 4
  store i32 0, ptr %5, align 4, !tbaa !27
  %6 = getelementptr inbounds nuw %"class.net::CachedNetworkParameters", ptr %3, i32 0, i32 1
  %7 = call noundef nonnull align 8 dereferenceable(32) ptr @_ZN6google8protobuf8internal27GetEmptyStringAlreadyInitedB5cxx11Ev()
  call void @_ZN6google8protobuf8internal14ArenaStringPtr16UnsafeSetDefaultEPKNSt7__cxx1112basic_stringIcSt11char_traitsIcESaIcEEE(ptr noundef nonnull align 8 dereferenceable(8) %6, ptr noundef %7)
  %8 = getelementptr inbounds nuw %"class.net::CachedNetworkParameters", ptr %3, i32 0, i32 5
  %9 = call noundef nonnull align 8 dereferenceable(32) ptr @_ZN6google8protobuf8internal27GetEmptyStringAlreadyInitedB5cxx11Ev()
  call void @_ZN6google8protobuf8internal14ArenaStringPtr16UnsafeSetDefaultEPKNSt7__cxx1112basic_stringIcSt11char_traitsIcESaIcEEE(ptr noundef nonnull align 8 dereferenceable(8) %8, ptr noundef %9)
  %10 = getelementptr inbounds nuw %"class.net::CachedNetworkParameters", ptr %3, i32 0, i32 6
  store i32 0, ptr %10, align 8, !tbaa !28
  %11 = getelementptr inbounds nuw %"class.net::CachedNetworkParameters", ptr %3, i32 0, i32 7
  store i32 0, ptr %11, align 4, !tbaa !29
  %12 = getelementptr inbounds nuw %"class.net::CachedNetworkParameters", ptr %3, i32 0, i32 8
  store i64 0, ptr %12, align 8, !tbaa !30
  %13 = getelementptr inbounds nuw %"class.net::CachedNetworkParameters", ptr %3, i32 0, i32 9
  store i32 0, ptr %13, align 8, !tbaa !31
  %14 = getelementptr inbounds nuw %"class.net::CachedNetworkParameters", ptr %3, i32 0, i32 10
  store i32 0, ptr %14, align 4, !tbaa !32
  %15 = getelementptr inbounds nuw %"class.net::CachedNetworkParameters", ptr %3, i32 0, i32 11
  store i64 0, ptr %15, align 8, !tbaa !33
  %16 = getelementptr inbounds nuw %"class.net::CachedNetworkParameters", ptr %3, i32 0, i32 3
  %17 = getelementptr inbounds [1 x i32], ptr %16, i64 0, i64 0
  call void @llvm.memset.p0.i64(ptr align 8 %17, i8 0, i64 4, i1 false)
  ret void
}

; Function Attrs: inlinehint mustprogress nounwind uwtable
define linkonce_odr void @_ZN6google8protobuf11MessageLiteC2Ev(ptr noundef nonnull align 8 dereferenceable(8) %0) unnamed_addr #6 comdat align 2 {
  %2 = alloca ptr, align 8
  store ptr %0, ptr %2, align 8, !tbaa !25
  %3 = load ptr, ptr %2, align 8
  store ptr getelementptr inbounds inrange(-16, 128) ({ [18 x ptr] }, ptr @_ZTVN6google8protobuf11MessageLiteE, i32 0, i32 0, i32 2), ptr %3, align 8, !tbaa !8
  ret void
}

; Function Attrs: mustprogress uwtable
define void @_ZN3net23CachedNetworkParametersC2Ev(ptr noundef nonnull align 8 dereferenceable(72) %0) unnamed_addr #1 align 2 personality ptr @__gxx_personality_v0 {
  %2 = alloca ptr, align 8
  %3 = alloca ptr, align 8
  %4 = alloca i32, align 4
  store ptr %0, ptr %2, align 8, !tbaa !3
  %5 = load ptr, ptr %2, align 8
  call void @_ZN6google8protobuf11MessageLiteC2Ev(ptr noundef nonnull align 8 dereferenceable(8) %5)
  store ptr getelementptr inbounds inrange(-16, 128) ({ [18 x ptr] }, ptr @_ZTVN3net23CachedNetworkParametersE, i32 0, i32 0, i32 2), ptr %5, align 8, !tbaa !8
  %6 = getelementptr inbounds nuw %"class.net::CachedNetworkParameters", ptr %5, i32 0, i32 2
  store ptr null, ptr %6, align 8, !tbaa !18
  invoke void @_ZN3net23CachedNetworkParameters10SharedCtorEv(ptr noundef nonnull align 8 dereferenceable(72) %5)
          to label %7 unwind label %8

7:                                                ; preds = %1
  ret void

8:                                                ; preds = %1
  %9 = landingpad { ptr, i32 }
          cleanup
  %10 = extractvalue { ptr, i32 } %9, 0
  store ptr %10, ptr %3, align 8
  %11 = extractvalue { ptr, i32 } %9, 1
  store i32 %11, ptr %4, align 4
  call void @_ZN6google8protobuf11MessageLiteD2Ev(ptr noundef nonnull align 8 dereferenceable(8) %5) #19
  br label %12

12:                                               ; preds = %8
  %13 = load ptr, ptr %3, align 8
  %14 = load i32, ptr %4, align 4
  %15 = insertvalue { ptr, i32 } poison, ptr %13, 0
  %16 = insertvalue { ptr, i32 } %15, i32 %14, 1
  resume { ptr, i32 } %16
}