; Function Attrs: mustprogress uwtable
define void @_ZN3net23CachedNetworkParametersC2Ev(ptr noundef nonnull align 8 dereferenceable(72) initializes((0, 8), (16, 24)) %0) unnamed_addr #1 align 2 personality ptr @__gxx_personality_v0 {
  store ptr getelementptr inbounds nuw inrange(-16, 128) (i8, ptr @_ZTVN3net23CachedNetworkParametersE, i64 16), ptr %0, align 8, !tbaa !8
  %2 = getelementptr inbounds nuw i8, ptr %0, i64 16
  store ptr null, ptr %2, align 8, !tbaa !10
  %3 = invoke noundef nonnull align 8 dereferenceable(32) ptr @_ZN6google8protobuf8internal14GetEmptyStringB5cxx11Ev()
          to label %4 unwind label %11

4:                                                ; preds = %1
  %5 = getelementptr inbounds nuw i8, ptr %0, i64 28
  store i32 0, ptr %5, align 4, !tbaa !18
  %6 = getelementptr inbounds nuw i8, ptr %0, i64 8
  %7 = load ptr, ptr @_ZN6google8protobuf8internal13empty_string_B5cxx11E, align 8, !tbaa !19
  store ptr %7, ptr %6, align 8, !tbaa !20
  %8 = getelementptr inbounds nuw i8, ptr %0, i64 32
  store ptr %7, ptr %8, align 8, !tbaa !20
  %9 = getelementptr inbounds nuw i8, ptr %0, i64 40
  %10 = getelementptr inbounds nuw i8, ptr %0, i64 24
  store i32 0, ptr %10, align 8
  tail call void @llvm.memset.p0.i64(ptr noundef nonnull align 8 dereferenceable(32) %9, i8 0, i64 32, i1 false)
  ret void

11:                                               ; preds = %1
  %12 = landingpad { ptr, i32 }
          cleanup
  tail call void @_ZN6google8protobuf11MessageLiteD2Ev(ptr noundef nonnull align 8 dereferenceable(8) %0) #21
  resume { ptr, i32 } %12
}